target datalayout = "e-m:e-p270:32:32-p271:32:32-p272:64:64-i64:64-i128:128-f80:128-n8:16:32:64-S128"
target triple = "x86_64-pc-linux-gnu"

@max_replication_slots = external global i32, align 4

; Function Attrs: nounwind uwtable
define dso_local i64 @ReplicationOriginShmemSize() #0 {
  %1 = alloca i64, align 8
  %2 = alloca i64, align 8
  %3 = alloca i32, align 4
  call void @llvm.lifetime.start.p0(i64 8, ptr %2) #9
  store i64 0, ptr %2, align 8
  %4 = load i32, ptr @max_replication_slots, align 4
  %5 = icmp eq i32 %4, 0
  br i1 %5, label %6, label %8

6:                                                ; preds = %0
  %7 = load i64, ptr %2, align 8
  store i64 %7, ptr %1, align 8
  store i32 1, ptr %3, align 4
  br label %17

8:                                                ; preds = %0
  %9 = load i64, ptr %2, align 8
  %10 = call i64 @add_size(i64 noundef %9, i64 noundef 8)
  store i64 %10, ptr %2, align 8
  %11 = load i64, ptr %2, align 8
  %12 = load i32, ptr @max_replication_slots, align 4
  %13 = sext i32 %12 to i64
  %14 = call i64 @mul_size(i64 noundef %13, i64 noundef 56)
  %15 = call i64 @add_size(i64 noundef %11, i64 noundef %14)
  store i64 %15, ptr %2, align 8
  %16 = load i64, ptr %2, align 8
  store i64 %16, ptr %1, align 8
  store i32 1, ptr %3, align 4
  br label %17

17:                                               ; preds = %8, %6
  call void @llvm.lifetime.end.p0(i64 8, ptr %2) #9
  %18 = load i64, ptr %1, align 8
  ret i64 %18
}