; Function Attrs: nounwind uwtable
define dso_local i64 @ReplicationOriginShmemSize() local_unnamed_addr #0 {
  %1 = load i32, ptr @max_replication_slots, align 4
  %2 = icmp eq i32 %1, 0
  br i1 %2, label %9, label %3

3:                                                ; preds = %0
  %4 = tail call i64 @add_size(i64 noundef 0, i64 noundef 8) #10
  %5 = load i32, ptr @max_replication_slots, align 4
  %6 = sext i32 %5 to i64
  %7 = tail call i64 @mul_size(i64 noundef %6, i64 noundef 56) #10
  %8 = tail call i64 @add_size(i64 noundef %4, i64 noundef %7) #10
  br label %9

9:                                                ; preds = %0, %3
  %.0 = phi i64 [ %8, %3 ], [ 0, %0 ]
  ret i64 %.0
}